target datalayout = "e-m:e-p270:32:32-p271:32:32-p272:64:64-i64:64-i128:128-f80:128-n8:16:32:64-S128"
target triple = "x86_64-pc-linux-gnu"

%"class.clang::SourceLocation" = type { i32 }
%"class.clang::OpenACCClauseWithParams" = type { %"class.clang::OpenACCClause.base", %"class.clang::SourceLocation" }
%"class.clang::OpenACCClause.base" = type <{ ptr, i32, %"class.clang::SourceRange" }>
%"class.clang::SourceRange" = type { %"class.clang::SourceLocation", %"class.clang::SourceLocation" }
%"class.clang::OpenACCClause" = type <{ ptr, i32, %"class.clang::SourceRange", [4 x i8] }>
%"class.clang::OpenACCClauseWithExprs" = type { %"class.clang::OpenACCClauseWithParams", %"class.llvm::MutableArrayRef" }
%"class.llvm::MutableArrayRef" = type { %"class.llvm::ArrayRef" }
%"class.llvm::ArrayRef" = type { ptr, i64 }
%"class.clang::OpenACCClauseWithSingleIntExpr" = type { %"class.clang::OpenACCClauseWithExprs", ptr }

@_ZTVN5clang23OpenACCNumWorkersClauseE = linkonce_odr unnamed_addr constant { [4 x ptr] } { [4 x ptr] [ptr null, ptr null, ptr @_ZN5clang23OpenACCNumWorkersClauseD2Ev, ptr @_ZN5clang23OpenACCNumWorkersClauseD0Ev] }, comdat, align 8
@_ZTVN5clang23OpenACCClauseWithParamsE = linkonce_odr unnamed_addr constant { [4 x ptr] } { [4 x ptr] [ptr null, ptr null, ptr @_ZN5clang23OpenACCClauseWithParamsD2Ev, ptr @_ZN5clang23OpenACCClauseWithParamsD0Ev] }, comdat, align 8
@_ZTVN5clang13OpenACCClauseE = linkonce_odr unnamed_addr constant { [4 x ptr] } { [4 x ptr] [ptr null, ptr null, ptr @_ZN5clang13OpenACCClauseD2Ev, ptr @_ZN5clang13OpenACCClauseD0Ev] }, comdat, align 8
@_ZTVN5clang30OpenACCClauseWithSingleIntExprE = linkonce_odr unnamed_addr constant { [4 x ptr] } { [4 x ptr] [ptr null, ptr null, ptr @_ZN5clang30OpenACCClauseWithSingleIntExprD2Ev, ptr @_ZN5clang30OpenACCClauseWithSingleIntExprD0Ev] }, comdat, align 8
@_ZTVN5clang22OpenACCClauseWithExprsE = linkonce_odr unnamed_addr constant { [4 x ptr] } { [4 x ptr] [ptr null, ptr null, ptr @_ZN5clang22OpenACCClauseWithExprsD2Ev, ptr @_ZN5clang22OpenACCClauseWithExprsD0Ev] }, comdat, align 8

; Function Attrs: mustprogress nounwind uwtable
define linkonce_odr hidden void @_ZN5clang11SourceRangeC2ENS_14SourceLocationES1_(ptr noundef nonnull align 4 dereferenceable(8) %0, i32 %1, i32 %2) unnamed_addr #0 comdat align 2 {
  %4 = alloca %"class.clang::SourceLocation", align 4
  %5 = alloca %"class.clang::SourceLocation", align 4
  %6 = alloca ptr, align 8
  %7 = getelementptr inbounds nuw %"class.clang::SourceLocation", ptr %4, i32 0, i32 0
  store i32 %1, ptr %7, align 4
  %8 = getelementptr inbounds nuw %"class.clang::SourceLocation", ptr %5, i32 0, i32 0
  store i32 %2, ptr %8, align 4
  store ptr %0, ptr %6, align 8
  %9 = load ptr, ptr %6, align 8
  %10 = getelementptr inbounds nuw %"class.clang::SourceRange", ptr %9, i32 0, i32 0
  call void @llvm.memcpy.p0.p0.i64(ptr align 4 %10, ptr align 4 %4, i64 4, i1 false)
  %11 = getelementptr inbounds nuw %"class.clang::SourceRange", ptr %9, i32 0, i32 1
  call void @llvm.memcpy.p0.p0.i64(ptr align 4 %11, ptr align 4 %5, i64 4, i1 false)
  ret void
}

; Function Attrs: mustprogress nounwind uwtable
define linkonce_odr hidden void @_ZN4llvm8ArrayRefIPN5clang4ExprEEC2Ev(ptr noundef nonnull align 8 dereferenceable(16) %0) unnamed_addr #0 comdat align 2 {
  %2 = alloca ptr, align 8
  store ptr %0, ptr %2, align 8
  %3 = load ptr, ptr %2, align 8
  %4 = getelementptr inbounds nuw %"class.llvm::ArrayRef", ptr %3, i32 0, i32 0
  store ptr null, ptr %4, align 8
  %5 = getelementptr inbounds nuw %"class.llvm::ArrayRef", ptr %3, i32 0, i32 1
  store i64 0, ptr %5, align 8
  ret void
}

; Function Attrs: mustprogress nounwind uwtable
define linkonce_odr hidden void @_ZN5clang13OpenACCClauseC2ENS_17OpenACCClauseKindENS_14SourceLocationES2_(ptr noundef nonnull align 8 dereferenceable(20) %0, i32 noundef %1, i32 %2, i32 %3) unnamed_addr #0 comdat align 2 {
  %5 = alloca %"class.clang::SourceLocation", align 4
  %6 = alloca %"class.clang::SourceLocation", align 4
  %7 = alloca ptr, align 8
  %8 = alloca i32, align 4
  %9 = alloca %"class.clang::SourceLocation", align 4
  %10 = alloca %"class.clang::SourceLocation", align 4
  %11 = getelementptr inbounds nuw %"class.clang::SourceLocation", ptr %5, i32 0, i32 0
  store i32 %2, ptr %11, align 4
  %12 = getelementptr inbounds nuw %"class.clang::SourceLocation", ptr %6, i32 0, i32 0
  store i32 %3, ptr %12, align 4
  store ptr %0, ptr %7, align 8
  store i32 %1, ptr %8, align 4
  %13 = load ptr, ptr %7, align 8
  store ptr getelementptr inbounds inrange(-16, 16) ({ [4 x ptr] }, ptr @_ZTVN5clang13OpenACCClauseE, i32 0, i32 0, i32 2), ptr %13, align 8
  %14 = getelementptr inbounds nuw %"class.clang::OpenACCClause", ptr %13, i32 0, i32 1
  %15 = load i32, ptr %8, align 4
  store i32 %15, ptr %14, align 8
  %16 = getelementptr inbounds nuw %"class.clang::OpenACCClause", ptr %13, i32 0, i32 2
  call void @llvm.memcpy.p0.p0.i64(ptr align 4 %9, ptr align 4 %5, i64 4, i1 false)
  call void @llvm.memcpy.p0.p0.i64(ptr align 4 %10, ptr align 4 %6, i64 4, i1 false)
  %17 = getelementptr inbounds nuw %"class.clang::SourceLocation", ptr %9, i32 0, i32 0
  %18 = load i32, ptr %17, align 4
  %19 = getelementptr inbounds nuw %"class.clang::SourceLocation", ptr %10, i32 0, i32 0
  %20 = load i32, ptr %19, align 4
  call void @_ZN5clang11SourceRangeC2ENS_14SourceLocationES1_(ptr noundef nonnull align 4 dereferenceable(8) %16, i32 %18, i32 %20)
  ret void
}

; Function Attrs: mustprogress nounwind uwtable
define linkonce_odr hidden void @_ZN4llvm8ArrayRefIPN5clang4ExprEEC2EPKS3_m(ptr noundef nonnull align 8 dereferenceable(16) %0, ptr noundef %1, i64 noundef %2) unnamed_addr #0 comdat align 2 {
  %4 = alloca ptr, align 8
  %5 = alloca ptr, align 8
  %6 = alloca i64, align 8
  store ptr %0, ptr %4, align 8
  store ptr %1, ptr %5, align 8
  store i64 %2, ptr %6, align 8
  %7 = load ptr, ptr %4, align 8
  %8 = getelementptr inbounds nuw %"class.llvm::ArrayRef", ptr %7, i32 0, i32 0
  %9 = load ptr, ptr %5, align 8
  store ptr %9, ptr %8, align 8
  %10 = getelementptr inbounds nuw %"class.llvm::ArrayRef", ptr %7, i32 0, i32 1
  %11 = load i64, ptr %6, align 8
  store i64 %11, ptr %10, align 8
  ret void
}

; Function Attrs: mustprogress nounwind uwtable
define linkonce_odr hidden void @_ZN4llvm15MutableArrayRefIPN5clang4ExprEEC2Ev(ptr noundef nonnull align 8 dereferenceable(16) %0) unnamed_addr #0 comdat align 2 {
  %2 = alloca ptr, align 8
  store ptr %0, ptr %2, align 8
  %3 = load ptr, ptr %2, align 8
  call void @_ZN4llvm8ArrayRefIPN5clang4ExprEEC2Ev(ptr noundef nonnull align 8 dereferenceable(16) %3) #7
  ret void
}

; Function Attrs: mustprogress nounwind uwtable
define linkonce_odr hidden void @_ZN5clang23OpenACCClauseWithParamsC2ENS_17OpenACCClauseKindENS_14SourceLocationES2_S2_(ptr noundef nonnull align 8 dereferenceable(24) %0, i32 noundef %1, i32 %2, i32 %3, i32 %4) unnamed_addr #0 comdat align 2 {
  %6 = alloca %"class.clang::SourceLocation", align 4
  %7 = alloca %"class.clang::SourceLocation", align 4
  %8 = alloca %"class.clang::SourceLocation", align 4
  %9 = alloca ptr, align 8
  %10 = alloca i32, align 4
  %11 = alloca %"class.clang::SourceLocation", align 4
  %12 = alloca %"class.clang::SourceLocation", align 4
  %13 = getelementptr inbounds nuw %"class.clang::SourceLocation", ptr %6, i32 0, i32 0
  store i32 %2, ptr %13, align 4
  %14 = getelementptr inbounds nuw %"class.clang::SourceLocation", ptr %7, i32 0, i32 0
  store i32 %3, ptr %14, align 4
  %15 = getelementptr inbounds nuw %"class.clang::SourceLocation", ptr %8, i32 0, i32 0
  store i32 %4, ptr %15, align 4
  store ptr %0, ptr %9, align 8
  store i32 %1, ptr %10, align 4
  %16 = load ptr, ptr %9, align 8
  %17 = load i32, ptr %10, align 4
  call void @llvm.memcpy.p0.p0.i64(ptr align 4 %11, ptr align 4 %6, i64 4, i1 false)
  call void @llvm.memcpy.p0.p0.i64(ptr align 4 %12, ptr align 4 %8, i64 4, i1 false)
  %18 = getelementptr inbounds nuw %"class.clang::SourceLocation", ptr %11, i32 0, i32 0
  %19 = load i32, ptr %18, align 4
  %20 = getelementptr inbounds nuw %"class.clang::SourceLocation", ptr %12, i32 0, i32 0
  %21 = load i32, ptr %20, align 4
  call void @_ZN5clang13OpenACCClauseC2ENS_17OpenACCClauseKindENS_14SourceLocationES2_(ptr noundef nonnull align 8 dereferenceable(20) %16, i32 noundef %17, i32 %19, i32 %21)
  store ptr getelementptr inbounds inrange(-16, 16) ({ [4 x ptr] }, ptr @_ZTVN5clang23OpenACCClauseWithParamsE, i32 0, i32 0, i32 2), ptr %16, align 8
  %22 = getelementptr inbounds nuw %"class.clang::OpenACCClauseWithParams", ptr %16, i32 0, i32 1
  call void @llvm.memcpy.p0.p0.i64(ptr align 4 %22, ptr align 4 %7, i64 4, i1 false)
  ret void
}

; Function Attrs: mustprogress nounwind uwtable
define linkonce_odr hidden void @_ZN5clang22OpenACCClauseWithExprs8setExprsEN4llvm15MutableArrayRefIPNS_4ExprEEE(ptr noundef nonnull align 8 dereferenceable(40) %0, ptr %1, i64 %2) #0 comdat align 2 {
  %4 = alloca %"class.llvm::MutableArrayRef", align 8
  %5 = alloca ptr, align 8
  %6 = getelementptr inbounds nuw { ptr, i64 }, ptr %4, i32 0, i32 0
  store ptr %1, ptr %6, align 8
  %7 = getelementptr inbounds nuw { ptr, i64 }, ptr %4, i32 0, i32 1
  store i64 %2, ptr %7, align 8
  store ptr %0, ptr %5, align 8
  %8 = load ptr, ptr %5, align 8
  %9 = getelementptr inbounds nuw %"class.clang::OpenACCClauseWithExprs", ptr %8, i32 0, i32 1
  call void @llvm.memcpy.p0.p0.i64(ptr align 8 %9, ptr align 8 %4, i64 16, i1 false)
  ret void
}

; Function Attrs: mustprogress nounwind uwtable
define linkonce_odr hidden void @_ZN4llvm15MutableArrayRefIPN5clang4ExprEEC2EPS3_m(ptr noundef nonnull align 8 dereferenceable(16) %0, ptr noundef %1, i64 noundef %2) unnamed_addr #0 comdat align 2 {
  %4 = alloca ptr, align 8
  %5 = alloca ptr, align 8
  %6 = alloca i64, align 8
  store ptr %0, ptr %4, align 8
  store ptr %1, ptr %5, align 8
  store i64 %2, ptr %6, align 8
  %7 = load ptr, ptr %4, align 8
  %8 = load ptr, ptr %5, align 8
  %9 = load i64, ptr %6, align 8
  call void @_ZN4llvm8ArrayRefIPN5clang4ExprEEC2EPKS3_m(ptr noundef nonnull align 8 dereferenceable(16) %7, ptr noundef %8, i64 noundef %9)
  ret void
}

; Function Attrs: mustprogress nounwind uwtable
define linkonce_odr hidden void @_ZN5clang22OpenACCClauseWithExprsC2ENS_17OpenACCClauseKindENS_14SourceLocationES2_S2_(ptr noundef nonnull align 8 dereferenceable(40) %0, i32 noundef %1, i32 %2, i32 %3, i32 %4) unnamed_addr #0 comdat align 2 {
  %6 = alloca %"class.clang::SourceLocation", align 4
  %7 = alloca %"class.clang::SourceLocation", align 4
  %8 = alloca %"class.clang::SourceLocation", align 4
  %9 = alloca ptr, align 8
  %10 = alloca i32, align 4
  %11 = alloca %"class.clang::SourceLocation", align 4
  %12 = alloca %"class.clang::SourceLocation", align 4
  %13 = alloca %"class.clang::SourceLocation", align 4
  %14 = getelementptr inbounds nuw %"class.clang::SourceLocation", ptr %6, i32 0, i32 0
  store i32 %2, ptr %14, align 4
  %15 = getelementptr inbounds nuw %"class.clang::SourceLocation", ptr %7, i32 0, i32 0
  store i32 %3, ptr %15, align 4
  %16 = getelementptr inbounds nuw %"class.clang::SourceLocation", ptr %8, i32 0, i32 0
  store i32 %4, ptr %16, align 4
  store ptr %0, ptr %9, align 8
  store i32 %1, ptr %10, align 4
  %17 = load ptr, ptr %9, align 8
  %18 = load i32, ptr %10, align 4
  call void @llvm.memcpy.p0.p0.i64(ptr align 4 %11, ptr align 4 %6, i64 4, i1 false)
  call void @llvm.memcpy.p0.p0.i64(ptr align 4 %12, ptr align 4 %7, i64 4, i1 false)
  call void @llvm.memcpy.p0.p0.i64(ptr align 4 %13, ptr align 4 %8, i64 4, i1 false)
  %19 = getelementptr inbounds nuw %"class.clang::SourceLocation", ptr %11, i32 0, i32 0
  %20 = load i32, ptr %19, align 4
  %21 = getelementptr inbounds nuw %"class.clang::SourceLocation", ptr %12, i32 0, i32 0
  %22 = load i32, ptr %21, align 4
  %23 = getelementptr inbounds nuw %"class.clang::SourceLocation", ptr %13, i32 0, i32 0
  %24 = load i32, ptr %23, align 4
  call void @_ZN5clang23OpenACCClauseWithParamsC2ENS_17OpenACCClauseKindENS_14SourceLocationES2_S2_(ptr noundef nonnull align 8 dereferenceable(24) %17, i32 noundef %18, i32 %20, i32 %22, i32 %24)
  store ptr getelementptr inbounds inrange(-16, 16) ({ [4 x ptr] }, ptr @_ZTVN5clang22OpenACCClauseWithExprsE, i32 0, i32 0, i32 2), ptr %17, align 8
  %25 = getelementptr inbounds nuw %"class.clang::OpenACCClauseWithExprs", ptr %17, i32 0, i32 1
  call void @_ZN4llvm15MutableArrayRefIPN5clang4ExprEEC2Ev(ptr noundef nonnull align 8 dereferenceable(16) %25) #7
  ret void
}

; Function Attrs: mustprogress nounwind uwtable
define linkonce_odr hidden void @_ZN5clang30OpenACCClauseWithSingleIntExprC2ENS_17OpenACCClauseKindENS_14SourceLocationES2_PNS_4ExprES2_(ptr noundef nonnull align 8 dereferenceable(48) %0, i32 noundef %1, i32 %2, i32 %3, ptr noundef %4, i32 %5) unnamed_addr #0 comdat align 2 {
  %7 = alloca %"class.clang::SourceLocation", align 4
  %8 = alloca %"class.clang::SourceLocation", align 4
  %9 = alloca %"class.clang::SourceLocation", align 4
  %10 = alloca ptr, align 8
  %11 = alloca i32, align 4
  %12 = alloca ptr, align 8
  %13 = alloca %"class.clang::SourceLocation", align 4
  %14 = alloca %"class.clang::SourceLocation", align 4
  %15 = alloca %"class.clang::SourceLocation", align 4
  %16 = alloca %"class.llvm::MutableArrayRef", align 8
  %17 = getelementptr inbounds nuw %"class.clang::SourceLocation", ptr %7, i32 0, i32 0
  store i32 %2, ptr %17, align 4
  %18 = getelementptr inbounds nuw %"class.clang::SourceLocation", ptr %8, i32 0, i32 0
  store i32 %3, ptr %18, align 4
  %19 = getelementptr inbounds nuw %"class.clang::SourceLocation", ptr %9, i32 0, i32 0
  store i32 %5, ptr %19, align 4
  store ptr %0, ptr %10, align 8
  store i32 %1, ptr %11, align 4
  store ptr %4, ptr %12, align 8
  %20 = load ptr, ptr %10, align 8
  %21 = load i32, ptr %11, align 4
  call void @llvm.memcpy.p0.p0.i64(ptr align 4 %13, ptr align 4 %7, i64 4, i1 false)
  call void @llvm.memcpy.p0.p0.i64(ptr align 4 %14, ptr align 4 %8, i64 4, i1 false)
  call void @llvm.memcpy.p0.p0.i64(ptr align 4 %15, ptr align 4 %9, i64 4, i1 false)
  %22 = getelementptr inbounds nuw %"class.clang::SourceLocation", ptr %13, i32 0, i32 0
  %23 = load i32, ptr %22, align 4
  %24 = getelementptr inbounds nuw %"class.clang::SourceLocation", ptr %14, i32 0, i32 0
  %25 = load i32, ptr %24, align 4
  %26 = getelementptr inbounds nuw %"class.clang::SourceLocation", ptr %15, i32 0, i32 0
  %27 = load i32, ptr %26, align 4
  call void @_ZN5clang22OpenACCClauseWithExprsC2ENS_17OpenACCClauseKindENS_14SourceLocationES2_S2_(ptr noundef nonnull align 8 dereferenceable(40) %20, i32 noundef %21, i32 %23, i32 %25, i32 %27)
  store ptr getelementptr inbounds inrange(-16, 16) ({ [4 x ptr] }, ptr @_ZTVN5clang30OpenACCClauseWithSingleIntExprE, i32 0, i32 0, i32 2), ptr %20, align 8
  %28 = getelementptr inbounds nuw %"class.clang::OpenACCClauseWithSingleIntExpr", ptr %20, i32 0, i32 1
  %29 = load ptr, ptr %12, align 8
  store ptr %29, ptr %28, align 8
  %30 = load ptr, ptr %12, align 8
  %31 = icmp ne ptr %30, null
  br i1 %31, label %32, label %38

32:                                               ; preds = %6
  %33 = getelementptr inbounds nuw %"class.clang::OpenACCClauseWithSingleIntExpr", ptr %20, i32 0, i32 1
  call void @_ZN4llvm15MutableArrayRefIPN5clang4ExprEEC2EPS3_m(ptr noundef nonnull align 8 dereferenceable(16) %16, ptr noundef %33, i64 noundef 1)
  %34 = getelementptr inbounds nuw { ptr, i64 }, ptr %16, i32 0, i32 0
  %35 = load ptr, ptr %34, align 8
  %36 = getelementptr inbounds nuw { ptr, i64 }, ptr %16, i32 0, i32 1
  %37 = load i64, ptr %36, align 8
  call void @_ZN5clang22OpenACCClauseWithExprs8setExprsEN4llvm15MutableArrayRefIPNS_4ExprEEE(ptr noundef nonnull align 8 dereferenceable(40) %20, ptr %35, i64 %37)
  br label %38

38:                                               ; preds = %32, %6
  ret void
}

; Function Attrs: mustprogress nounwind uwtable
define dso_local void @_ZN5clang23OpenACCNumWorkersClauseC2ENS_14SourceLocationES1_PNS_4ExprES1_(ptr noundef nonnull align 8 dereferenceable(48) %0, i32 %1, i32 %2, ptr noundef %3, i32 %4) unnamed_addr #0 align 2 {
  %6 = alloca %"class.clang::SourceLocation", align 4
  %7 = alloca %"class.clang::SourceLocation", align 4
  %8 = alloca %"class.clang::SourceLocation", align 4
  %9 = alloca ptr, align 8
  %10 = alloca ptr, align 8
  %11 = alloca %"class.clang::SourceLocation", align 4
  %12 = alloca %"class.clang::SourceLocation", align 4
  %13 = alloca %"class.clang::SourceLocation", align 4
  %14 = getelementptr inbounds nuw %"class.clang::SourceLocation", ptr %6, i32 0, i32 0
  store i32 %1, ptr %14, align 4
  %15 = getelementptr inbounds nuw %"class.clang::SourceLocation", ptr %7, i32 0, i32 0
  store i32 %2, ptr %15, align 4
  %16 = getelementptr inbounds nuw %"class.clang::SourceLocation", ptr %8, i32 0, i32 0
  store i32 %4, ptr %16, align 4
  store ptr %0, ptr %9, align 8
  store ptr %3, ptr %10, align 8
  %17 = load ptr, ptr %9, align 8
  call void @llvm.memcpy.p0.p0.i64(ptr align 4 %11, ptr align 4 %6, i64 4, i1 false)
  call void @llvm.memcpy.p0.p0.i64(ptr align 4 %12, ptr align 4 %7, i64 4, i1 false)
  %18 = load ptr, ptr %10, align 8
  call void @llvm.memcpy.p0.p0.i64(ptr align 4 %13, ptr align 4 %8, i64 4, i1 false)
  %19 = getelementptr inbounds nuw %"class.clang::SourceLocation", ptr %11, i32 0, i32 0
  %20 = load i32, ptr %19, align 4
  %21 = getelementptr inbounds nuw %"class.clang::SourceLocation", ptr %12, i32 0, i32 0
  %22 = load i32, ptr %21, align 4
  %23 = getelementptr inbounds nuw %"class.clang::SourceLocation", ptr %13, i32 0, i32 0
  %24 = load i32, ptr %23, align 4
  call void @_ZN5clang30OpenACCClauseWithSingleIntExprC2ENS_17OpenACCClauseKindENS_14SourceLocationES2_PNS_4ExprES2_(ptr noundef nonnull align 8 dereferenceable(48) %17, i32 noundef 41, i32 %20, i32 %22, ptr noundef %18, i32 %24)
  store ptr getelementptr inbounds inrange(-16, 16) ({ [4 x ptr] }, ptr @_ZTVN5clang23OpenACCNumWorkersClauseE, i32 0, i32 0, i32 2), ptr %17, align 8
  ret void
}